target datalayout = "e-m:e-p270:32:32-p271:32:32-p272:64:64-i64:64-i128:128-f80:128-n8:16:32:64-S128"
target triple = "x86_64-pc-linux-gnu"

%"class.clang::ento::SubRegion" = type { %"class.clang::ento::MemRegion", ptr }
%"class.clang::ento::MemRegion" = type { ptr, %"class.llvm::FoldingSetBase::Node", i32, [4 x i8], %"class.std::optional" }
%"class.llvm::FoldingSetBase::Node" = type { ptr }
%"class.std::optional" = type { %"struct.std::_Optional_base" }
%"struct.std::_Optional_base" = type { %"struct.std::_Optional_payload" }
%"struct.std::_Optional_payload" = type { %"struct.std::_Optional_payload_base.base", [7 x i8] }
%"struct.std::_Optional_payload_base.base" = type <{ %"union.std::_Optional_payload_base<clang::ento::RegionOffset>::_Storage", i8 }>
%"union.std::_Optional_payload_base<clang::ento::RegionOffset>::_Storage" = type { %"class.clang::ento::RegionOffset" }
%"class.clang::ento::RegionOffset" = type { ptr, i64 }
%"class.clang::ento::TypedValueRegion" = type { %"class.clang::ento::TypedRegion" }
%"class.clang::ento::TypedRegion" = type { %"class.clang::ento::SubRegion" }
%"class.clang::QualType" = type { %"class.llvm::PointerIntPair" }
%"class.llvm::PointerIntPair" = type { %"struct.llvm::detail::PunnedPointer" }
%"struct.llvm::detail::PunnedPointer" = type { [8 x i8] }
%"class.clang::ento::ElementRegion" = type { %"class.clang::ento::TypedValueRegion", %"class.clang::QualType", %"class.clang::ento::NonLoc" }
%"class.clang::ento::NonLoc" = type { %"class.clang::ento::DefinedSVal.base", [7 x i8] }
%"class.clang::ento::DefinedSVal.base" = type { %"class.clang::ento::DefinedOrUnknownSVal.base" }
%"class.clang::ento::DefinedOrUnknownSVal.base" = type { %"class.clang::ento::SVal.base" }
%"class.clang::ento::SVal.base" = type <{ ptr, i8 }>

; Function Attrs: mustprogress nounwind uwtable
define linkonce_odr hidden noundef ptr @_ZN4llvm16cast_convert_valIN5clang4ento16TypedValueRegionEPKNS2_9MemRegionES6_E4doitES6_(ptr noundef %0) #0 comdat align 2 {
  %2 = alloca ptr, align 8
  store ptr %0, ptr %2, align 8
  %3 = load ptr, ptr %2, align 8
  ret ptr %3
}

; Function Attrs: mustprogress nounwind uwtable
define linkonce_odr hidden noundef ptr @_ZN4llvm16cast_convert_valIN5clang4ento13ElementRegionEPKNS2_9MemRegionES6_E4doitES6_(ptr noundef %0) #0 comdat align 2 {
  %2 = alloca ptr, align 8
  store ptr %0, ptr %2, align 8
  %3 = load ptr, ptr %2, align 8
  ret ptr %3
}

; Function Attrs: mustprogress nounwind uwtable
define linkonce_odr hidden noundef ptr @_ZN4llvm8CastInfoIN5clang4ento16TypedValueRegionEPKNS2_9MemRegionEvE6doCastERKS6_(ptr noundef nonnull align 8 dereferenceable(8) %0) #0 comdat align 2 {
  %2 = alloca ptr, align 8
  store ptr %0, ptr %2, align 8
  %3 = load ptr, ptr %2, align 8
  %4 = load ptr, ptr %3, align 8
  %5 = call noundef ptr @_ZN4llvm16cast_convert_valIN5clang4ento16TypedValueRegionEPKNS2_9MemRegionES6_E4doitES6_(ptr noundef %4)
  ret ptr %5
}

; Function Attrs: mustprogress nounwind uwtable
define linkonce_odr hidden noundef ptr @_ZN4llvm8CastInfoIN5clang4ento13ElementRegionEPKNS2_9MemRegionEvE6doCastERKS6_(ptr noundef nonnull align 8 dereferenceable(8) %0) #0 comdat align 2 {
  %2 = alloca ptr, align 8
  store ptr %0, ptr %2, align 8
  %3 = load ptr, ptr %2, align 8
  %4 = load ptr, ptr %3, align 8
  %5 = call noundef ptr @_ZN4llvm16cast_convert_valIN5clang4ento13ElementRegionEPKNS2_9MemRegionES6_E4doitES6_(ptr noundef %4)
  ret ptr %5
}

; Function Attrs: mustprogress nounwind uwtable
define linkonce_odr hidden noundef ptr @_ZN4llvm4castIN5clang4ento16TypedValueRegionEKNS2_9MemRegionEEEDcPT0_(ptr noundef %0) #0 comdat {
  %2 = alloca ptr, align 8
  store ptr %0, ptr %2, align 8
  %3 = call noundef ptr @_ZN4llvm8CastInfoIN5clang4ento16TypedValueRegionEPKNS2_9MemRegionEvE6doCastERKS6_(ptr noundef nonnull align 8 dereferenceable(8) %2)
  ret ptr %3
}

; Function Attrs: mustprogress nounwind uwtable
define linkonce_odr hidden noundef nonnull ptr @_ZNK5clang4ento9SubRegion14getSuperRegionEv(ptr noundef nonnull align 8 dereferenceable(56) %0) #0 comdat align 2 {
  %2 = alloca ptr, align 8
  store ptr %0, ptr %2, align 8
  %3 = load ptr, ptr %2, align 8
  %4 = getelementptr inbounds nuw %"class.clang::ento::SubRegion", ptr %3, i32 0, i32 1
  %5 = load ptr, ptr %4, align 8
  ret ptr %5
}

; Function Attrs: mustprogress nounwind uwtable
define linkonce_odr hidden { ptr, i8 } @_ZNK5clang4ento13ElementRegion8getIndexEv(ptr noundef nonnull align 8 dereferenceable(80) %0) #0 comdat align 2 {
  %2 = alloca %"class.clang::ento::NonLoc", align 8
  %3 = alloca ptr, align 8
  store ptr %0, ptr %3, align 8
  %4 = load ptr, ptr %3, align 8
  %5 = getelementptr inbounds nuw %"class.clang::ento::ElementRegion", ptr %4, i32 0, i32 2
  call void @llvm.memcpy.p0.p0.i64(ptr align 8 %2, ptr align 8 %5, i64 16, i1 false)
  %6 = load { ptr, i8 }, ptr %2, align 8
  ret { ptr, i8 } %6
}

; Function Attrs: mustprogress nounwind uwtable
define linkonce_odr hidden noundef ptr @_ZN4llvm4castIN5clang4ento13ElementRegionEKNS2_9MemRegionEEEDcPT0_(ptr noundef %0) #0 comdat {
  %2 = alloca ptr, align 8
  store ptr %0, ptr %2, align 8
  %3 = call noundef ptr @_ZN4llvm8CastInfoIN5clang4ento13ElementRegionEPKNS2_9MemRegionEvE6doCastERKS6_(ptr noundef nonnull align 8 dereferenceable(8) %2)
  ret ptr %3
}

; Function Attrs: mustprogress nounwind uwtable
define linkonce_odr hidden noundef i32 @_ZNK5clang4ento9MemRegion7getKindEv(ptr noundef nonnull align 8 dereferenceable(48) %0) #0 comdat align 2 {
  %2 = alloca ptr, align 8
  store ptr %0, ptr %2, align 8
  %3 = load ptr, ptr %2, align 8
  %4 = getelementptr inbounds nuw %"class.clang::ento::MemRegion", ptr %3, i32 0, i32 2
  %5 = load i32, ptr %4, align 8
  ret i32 %5
}

; Function Attrs: mustprogress nounwind uwtable
define dso_local noundef nonnull ptr @_ZNK5clang4ento9MemRegion10StripCastsEb(ptr noundef nonnull align 8 dereferenceable(48) %0, i1 noundef zeroext %1) #0 align 2 {
  %3 = alloca ptr, align 8
  %4 = alloca ptr, align 8
  %5 = alloca i8, align 1
  %6 = alloca ptr, align 8
  %7 = alloca ptr, align 8
  %8 = alloca %"class.clang::ento::NonLoc", align 8
  %9 = alloca { ptr, i8 }, align 8
  store ptr %0, ptr %4, align 8
  %10 = zext i1 %1 to i8
  store i8 %10, ptr %5, align 1
  %11 = load ptr, ptr %4, align 8
  store ptr %11, ptr %6, align 8
  br label %12

12:                                               ; preds = %38, %2
  %13 = load ptr, ptr %6, align 8
  %14 = call noundef i32 @_ZNK5clang4ento9MemRegion7getKindEv(ptr noundef nonnull align 8 dereferenceable(48) %13)
  switch i32 %14, label %36 [
    i32 24, label %15
    i32 15, label %27
    i32 16, label %27
  ]

15:                                               ; preds = %12
  %16 = load ptr, ptr %6, align 8
  %17 = call noundef ptr @_ZN4llvm4castIN5clang4ento13ElementRegionEKNS2_9MemRegionEEEDcPT0_(ptr noundef %16)
  store ptr %17, ptr %7, align 8
  %18 = load ptr, ptr %7, align 8
  %19 = call { ptr, i8 } @_ZNK5clang4ento13ElementRegion8getIndexEv(ptr noundef nonnull align 8 dereferenceable(80) %18)
  store { ptr, i8 } %19, ptr %9, align 8
  call void @llvm.memcpy.p0.p0.i64(ptr align 8 %8, ptr align 8 %9, i64 9, i1 false)
  %20 = call noundef zeroext i1 @_ZNK5clang4ento4SVal14isZeroConstantEv(ptr noundef nonnull align 8 dereferenceable(9) %8)
  %21 = xor i1 %20, true
  br i1 %21, label %22, label %24

22:                                               ; preds = %15
  %23 = load ptr, ptr %6, align 8
  store ptr %23, ptr %3, align 8
  br label %39

24:                                               ; preds = %15
  %25 = load ptr, ptr %7, align 8
  %26 = call noundef nonnull ptr @_ZNK5clang4ento9SubRegion14getSuperRegionEv(ptr noundef nonnull align 8 dereferenceable(56) %25)
  store ptr %26, ptr %6, align 8
  br label %38

27:                                               ; preds = %12, %12
  %28 = load i8, ptr %5, align 1
  %29 = trunc i8 %28 to i1
  br i1 %29, label %32, label %30

30:                                               ; preds = %27
  %31 = load ptr, ptr %6, align 8
  store ptr %31, ptr %3, align 8
  br label %39

32:                                               ; preds = %27
  %33 = load ptr, ptr %6, align 8
  %34 = call noundef ptr @_ZN4llvm4castIN5clang4ento16TypedValueRegionEKNS2_9MemRegionEEEDcPT0_(ptr noundef %33)
  %35 = call noundef nonnull ptr @_ZNK5clang4ento9SubRegion14getSuperRegionEv(ptr noundef nonnull align 8 dereferenceable(56) %34)
  store ptr %35, ptr %6, align 8
  br label %38

36:                                               ; preds = %12
  %37 = load ptr, ptr %6, align 8
  store ptr %37, ptr %3, align 8
  br label %39

38:                                               ; preds = %32, %24
  br label %12, !llvm.loop !14

39:                                               ; preds = %36, %30, %22
  %40 = load ptr, ptr %3, align 8
  ret ptr %40
}