; Function Attrs: mustprogress nounwind uwtable
define dso_local noundef nonnull ptr @_ZNK5clang4ento9MemRegion10StripCastsEb(ptr noundef nonnull readonly align 8 dereferenceable(48) %0, i1 noundef zeroext %1) local_unnamed_addr #3 align 2 {
  %3 = alloca %"class.clang::ento::NonLoc", align 8
  %.sroa.2.0..sroa_idx = getelementptr inbounds i8, ptr %3, i64 8
  br i1 %1, label %.split.us, label %.split.preheader

.split.preheader:                                 ; preds = %2
  %4 = getelementptr inbounds nuw i8, ptr %0, i64 16
  %5 = load i32, ptr %4, align 8
  %cond18 = icmp eq i32 %5, 24
  br i1 %cond18, label %.lr.ph, label %.split12.us

.split.us:                                        ; preds = %2, %11
  %.010.us = phi ptr [ %.1.us, %11 ], [ %0, %2 ]
  %6 = getelementptr inbounds nuw i8, ptr %.010.us, i64 16
  %7 = load i32, ptr %6, align 8
  switch i32 %7, label %.split12.us [
    i32 24, label %8
    i32 15, label %11
    i32 16, label %11
  ]

8:                                                ; preds = %.split.us
  %9 = getelementptr inbounds nuw i8, ptr %.010.us, i64 64
  %.sroa.0.0.copyload.i.us = load ptr, ptr %9, align 8
  %.sroa.2.0..sroa_idx.i.us = getelementptr inbounds i8, ptr %.010.us, i64 72
  %.sroa.2.0.copyload.i.us = load i8, ptr %.sroa.2.0..sroa_idx.i.us, align 8
  store ptr %.sroa.0.0.copyload.i.us, ptr %3, align 8
  store i8 %.sroa.2.0.copyload.i.us, ptr %.sroa.2.0..sroa_idx, align 8
  %10 = call noundef zeroext i1 @_ZNK5clang4ento4SVal14isZeroConstantEv(ptr noundef nonnull align 8 dereferenceable(9) %3) #20
  br i1 %10, label %11, label %.split12.us

11:                                               ; preds = %.split.us, %.split.us, %8
  %.1.in.us = getelementptr inbounds nuw i8, ptr %.010.us, i64 48
  %.1.us = load ptr, ptr %.1.in.us, align 8
  br label %.split.us, !llvm.loop !83

.lr.ph:                                           ; preds = %.split.preheader, %.split
  %.01019 = phi ptr [ %.1, %.split ], [ %0, %.split.preheader ]
  %12 = getelementptr inbounds nuw i8, ptr %.01019, i64 64
  %.sroa.0.0.copyload.i = load ptr, ptr %12, align 8
  %.sroa.2.0..sroa_idx.i = getelementptr inbounds i8, ptr %.01019, i64 72
  %.sroa.2.0.copyload.i = load i8, ptr %.sroa.2.0..sroa_idx.i, align 8
  store ptr %.sroa.0.0.copyload.i, ptr %3, align 8
  store i8 %.sroa.2.0.copyload.i, ptr %.sroa.2.0..sroa_idx, align 8
  %13 = call noundef zeroext i1 @_ZNK5clang4ento4SVal14isZeroConstantEv(ptr noundef nonnull align 8 dereferenceable(9) %3) #20
  br i1 %13, label %.split, label %.split12.us

.split:                                           ; preds = %.lr.ph
  %.1.in = getelementptr inbounds nuw i8, ptr %.01019, i64 48
  %.1 = load ptr, ptr %.1.in, align 8
  %14 = getelementptr inbounds nuw i8, ptr %.1, i64 16
  %15 = load i32, ptr %14, align 8
  %cond = icmp eq i32 %15, 24
  br i1 %cond, label %.lr.ph, label %.split12.us, !llvm.loop !83

.split12.us:                                      ; preds = %.lr.ph, %.split, %.split.us, %8, %.split.preheader
  %.us-phi = phi ptr [ %0, %.split.preheader ], [ %.010.us, %8 ], [ %.010.us, %.split.us ], [ %.1, %.split ], [ %.01019, %.lr.ph ]
  ret ptr %.us-phi
}